target datalayout = "e-m:e-p270:32:32-p271:32:32-p272:64:64-i64:64-i128:128-f80:128-n8:16:32:64-S128"
target triple = "x86_64-pc-linux-gnu"

%struct.AVPacket = type { ptr, i64, i64, ptr, i32, i32, i32, ptr, i32, i64, i64, ptr, ptr, %struct.AVRational }
%struct.AVRational = type { i32, i32 }
%struct.AVStream = type { ptr, i32, i32, ptr, ptr, %struct.AVRational, i64, i64, i64, i32, i32, %struct.AVRational, ptr, %struct.AVRational, %struct.AVPacket, i32, %struct.AVRational, i32 }
%struct.AVCodecParameters = type { i32, i32, i32, ptr, i32, ptr, i32, i32, i64, i32, i32, i32, i32, i32, i32, %struct.AVRational, %struct.AVRational, i32, i32, i32, i32, i32, i32, i32, %struct.AVChannelLayout, i32, i32, i32, i32, i32, i32 }
%struct.AVChannelLayout = type { i32, i32, %union.anon, ptr }
%union.anon = type { i64 }
%struct.AVFormatContext = type { ptr, ptr, ptr, ptr, ptr, i32, i32, ptr, i32, ptr, i32, ptr, ptr, i64, i64, i64, i32, i32, i32, i64, i64, ptr, i32, i32, ptr, i32, i32, i32, i32, ptr, i64, i32, i32, %struct.AVIOInterruptCB, i32, i32, i32, i32, i64, i32, i32, i32, i32, i32, i32, i32, i32, i32, i32, i32, i32, i64, i32, i32, i32, i32, i32, ptr, ptr, ptr, ptr, i32, ptr, ptr, ptr, ptr, i32, ptr, ptr, i64, ptr, ptr, ptr, i64 }
%struct.AVIOInterruptCB = type { ptr, ptr }
%struct.RMDemuxContext = type { i32, i32, i32, i32, i32, i32, i32 }

@.str.37 = private unnamed_addr constant [17 x i8] c"%d %d-%d %ld %d\0A\00", align 1

; Function Attrs: nounwind uwtable
define internal i64 @rm_read_dts(ptr noundef %0, i32 noundef %1, ptr noundef %2, i64 noundef %3) #0 {
  %5 = alloca i64, align 8
  %6 = alloca ptr, align 8
  %7 = alloca i32, align 4
  %8 = alloca ptr, align 8
  %9 = alloca i64, align 8
  %10 = alloca ptr, align 8
  %11 = alloca i64, align 8
  %12 = alloca i64, align 8
  %13 = alloca i32, align 4
  %14 = alloca i32, align 4
  %15 = alloca i32, align 4
  %16 = alloca i32, align 4
  %17 = alloca i32, align 4
  %18 = alloca i32, align 4
  %19 = alloca ptr, align 8
  store ptr %0, ptr %6, align 8, !tbaa !18
  store i32 %1, ptr %7, align 4, !tbaa !24
  store ptr %2, ptr %8, align 8, !tbaa !107
  store i64 %3, ptr %9, align 8, !tbaa !34
  call void @llvm.lifetime.start.p0(i64 8, ptr %10) #10
  %20 = load ptr, ptr %6, align 8, !tbaa !18
  %21 = getelementptr inbounds nuw %struct.AVFormatContext, ptr %20, i32 0, i32 3
  %22 = load ptr, ptr %21, align 8, !tbaa !89
  store ptr %22, ptr %10, align 8, !tbaa !90
  call void @llvm.lifetime.start.p0(i64 8, ptr %11) #10
  call void @llvm.lifetime.start.p0(i64 8, ptr %12) #10
  call void @llvm.lifetime.start.p0(i64 4, ptr %13) #10
  call void @llvm.lifetime.start.p0(i64 4, ptr %14) #10
  call void @llvm.lifetime.start.p0(i64 4, ptr %15) #10
  call void @llvm.lifetime.start.p0(i64 4, ptr %16) #10
  %23 = load ptr, ptr %8, align 8, !tbaa !107
  %24 = load i64, ptr %23, align 8, !tbaa !34
  store i64 %24, ptr %11, align 8, !tbaa !34
  %25 = load ptr, ptr %10, align 8, !tbaa !90
  %26 = getelementptr inbounds nuw %struct.RMDemuxContext, ptr %25, i32 0, i32 1
  %27 = load i32, ptr %26, align 4, !tbaa !132
  %28 = icmp ne i32 %27, 0
  br i1 %28, label %29, label %30

29:                                               ; preds = %4
  store i64 -9223372036854775808, ptr %5, align 8
  store i32 1, ptr %17, align 4
  br label %117

30:                                               ; preds = %4
  %31 = load ptr, ptr %6, align 8, !tbaa !18
  %32 = getelementptr inbounds nuw %struct.AVFormatContext, ptr %31, i32 0, i32 4
  %33 = load ptr, ptr %32, align 8, !tbaa !122
  %34 = load i64, ptr %11, align 8, !tbaa !34
  %35 = call i64 @avio_seek(ptr noundef %33, i64 noundef %34, i32 noundef 0)
  %36 = icmp slt i64 %35, 0
  br i1 %36, label %37, label %38

37:                                               ; preds = %30
  store i64 -9223372036854775808, ptr %5, align 8
  store i32 1, ptr %17, align 4
  br label %117

38:                                               ; preds = %30
  %39 = load ptr, ptr %10, align 8, !tbaa !90
  %40 = getelementptr inbounds nuw %struct.RMDemuxContext, ptr %39, i32 0, i32 3
  store i32 0, ptr %40, align 4, !tbaa !109
  br label %41

41:                                               ; preds = %112, %38
  call void @llvm.lifetime.start.p0(i64 4, ptr %18) #10
  store i32 1, ptr %18, align 4, !tbaa !24
  call void @llvm.lifetime.start.p0(i64 8, ptr %19) #10
  %42 = load ptr, ptr %6, align 8, !tbaa !18
  %43 = call i32 @rm_sync(ptr noundef %42, ptr noundef %12, ptr noundef %14, ptr noundef %13, ptr noundef %11)
  store i32 %43, ptr %15, align 4, !tbaa !24
  %44 = load i32, ptr %15, align 4, !tbaa !24
  %45 = icmp slt i32 %44, 0
  br i1 %45, label %46, label %47

46:                                               ; preds = %41
  store i64 -9223372036854775808, ptr %5, align 8
  store i32 1, ptr %17, align 4
  br label %110

47:                                               ; preds = %41
  %48 = load ptr, ptr %6, align 8, !tbaa !18
  %49 = getelementptr inbounds nuw %struct.AVFormatContext, ptr %48, i32 0, i32 7
  %50 = load ptr, ptr %49, align 8, !tbaa !131
  %51 = load i32, ptr %13, align 4, !tbaa !24
  %52 = sext i32 %51 to i64
  %53 = getelementptr inbounds ptr, ptr %50, i64 %52
  %54 = load ptr, ptr %53, align 8, !tbaa !22
  store ptr %54, ptr %19, align 8, !tbaa !22
  %55 = load ptr, ptr %19, align 8, !tbaa !22
  %56 = getelementptr inbounds nuw %struct.AVStream, ptr %55, i32 0, i32 3
  %57 = load ptr, ptr %56, align 8, !tbaa !26
  %58 = getelementptr inbounds nuw %struct.AVCodecParameters, ptr %57, i32 0, i32 0
  %59 = load i32, ptr %58, align 8, !tbaa !31
  %60 = icmp eq i32 %59, 0
  br i1 %60, label %61, label %79

61:                                               ; preds = %47
  %62 = load ptr, ptr %6, align 8, !tbaa !18
  %63 = getelementptr inbounds nuw %struct.AVFormatContext, ptr %62, i32 0, i32 4
  %64 = load ptr, ptr %63, align 8, !tbaa !122
  %65 = call i32 @avio_r8(ptr noundef %64)
  store i32 %65, ptr %16, align 4, !tbaa !24
  %66 = load i32, ptr %15, align 4, !tbaa !24
  %67 = add nsw i32 %66, -1
  store i32 %67, ptr %15, align 4, !tbaa !24
  %68 = load i32, ptr %16, align 4, !tbaa !24
  %69 = and i32 %68, 64
  %70 = icmp ne i32 %69, 0
  br i1 %70, label %78, label %71

71:                                               ; preds = %61
  %72 = load ptr, ptr %6, align 8, !tbaa !18
  %73 = getelementptr inbounds nuw %struct.AVFormatContext, ptr %72, i32 0, i32 4
  %74 = load ptr, ptr %73, align 8, !tbaa !122
  %75 = call i32 @avio_r8(ptr noundef %74)
  store i32 %75, ptr %18, align 4, !tbaa !24
  %76 = load i32, ptr %15, align 4, !tbaa !24
  %77 = add nsw i32 %76, -1
  store i32 %77, ptr %15, align 4, !tbaa !24
  br label %78

78:                                               ; preds = %71, %61
  br label %79

79:                                               ; preds = %78, %47
  %80 = load i32, ptr %14, align 4, !tbaa !24
  %81 = and i32 %80, 2
  %82 = icmp ne i32 %81, 0
  br i1 %82, label %83, label %103

83:                                               ; preds = %79
  %84 = load i32, ptr %18, align 4, !tbaa !24
  %85 = and i32 %84, 127
  %86 = icmp eq i32 %85, 1
  br i1 %86, label %87, label %103

87:                                               ; preds = %83
  %88 = load ptr, ptr %6, align 8, !tbaa !18
  %89 = load i32, ptr %14, align 4, !tbaa !24
  %90 = load i32, ptr %13, align 4, !tbaa !24
  %91 = load i32, ptr %7, align 4, !tbaa !24
  %92 = load i64, ptr %12, align 8, !tbaa !34
  %93 = load i32, ptr %18, align 4, !tbaa !24
  call void (ptr, i32, ptr, ...) @av_log(ptr noundef %88, i32 noundef 56, ptr noundef @.str.37, i32 noundef %89, i32 noundef %90, i32 noundef %91, i64 noundef %92, i32 noundef %93)
  %94 = load ptr, ptr %19, align 8, !tbaa !22
  %95 = load i64, ptr %11, align 8, !tbaa !34
  %96 = load i64, ptr %12, align 8, !tbaa !34
  %97 = call i32 @av_add_index_entry(ptr noundef %94, i64 noundef %95, i64 noundef %96, i32 noundef 0, i32 noundef 0, i32 noundef 1)
  %98 = load i32, ptr %13, align 4, !tbaa !24
  %99 = load i32, ptr %7, align 4, !tbaa !24
  %100 = icmp eq i32 %98, %99
  br i1 %100, label %101, label %102

101:                                              ; preds = %87
  store i32 2, ptr %17, align 4
  br label %110

102:                                              ; preds = %87
  br label %103

103:                                              ; preds = %102, %83, %79
  %104 = load ptr, ptr %6, align 8, !tbaa !18
  %105 = getelementptr inbounds nuw %struct.AVFormatContext, ptr %104, i32 0, i32 4
  %106 = load ptr, ptr %105, align 8, !tbaa !122
  %107 = load i32, ptr %15, align 4, !tbaa !24
  %108 = sext i32 %107 to i64
  %109 = call i64 @avio_skip(ptr noundef %106, i64 noundef %108)
  store i32 0, ptr %17, align 4
  br label %110

110:                                              ; preds = %103, %101, %46
  call void @llvm.lifetime.end.p0(i64 8, ptr %19) #10
  call void @llvm.lifetime.end.p0(i64 4, ptr %18) #10
  %111 = load i32, ptr %17, align 4
  switch i32 %111, label %117 [
    i32 0, label %112
    i32 2, label %113
  ]

112:                                              ; preds = %110
  br label %41

113:                                              ; preds = %110
  %114 = load i64, ptr %11, align 8, !tbaa !34
  %115 = load ptr, ptr %8, align 8, !tbaa !107
  store i64 %114, ptr %115, align 8, !tbaa !34
  %116 = load i64, ptr %12, align 8, !tbaa !34
  store i64 %116, ptr %5, align 8
  store i32 1, ptr %17, align 4
  br label %117

117:                                              ; preds = %113, %110, %37, %29
  call void @llvm.lifetime.end.p0(i64 4, ptr %16) #10
  call void @llvm.lifetime.end.p0(i64 4, ptr %15) #10
  call void @llvm.lifetime.end.p0(i64 4, ptr %14) #10
  call void @llvm.lifetime.end.p0(i64 4, ptr %13) #10
  call void @llvm.lifetime.end.p0(i64 8, ptr %12) #10
  call void @llvm.lifetime.end.p0(i64 8, ptr %11) #10
  call void @llvm.lifetime.end.p0(i64 8, ptr %10) #10
  %118 = load i64, ptr %5, align 8
  ret i64 %118
}