; Function Attrs: nounwind uwtable
define internal noundef i64 @rm_read_dts(ptr noundef %0, i32 noundef %1, ptr noundef captures(none) %2, i64 %3) #0 {
  %5 = alloca i64, align 8
  %6 = alloca i64, align 8
  %7 = alloca i32, align 4
  %8 = alloca i32, align 4
  %9 = getelementptr inbounds nuw i8, ptr %0, i64 24
  %10 = load ptr, ptr %9, align 8, !tbaa !71
  call void @llvm.lifetime.start.p0(i64 8, ptr nonnull %5) #12
  call void @llvm.lifetime.start.p0(i64 8, ptr nonnull %6) #12
  call void @llvm.lifetime.start.p0(i64 4, ptr nonnull %7) #12
  call void @llvm.lifetime.start.p0(i64 4, ptr nonnull %8) #12
  %11 = load i64, ptr %2, align 8, !tbaa !110
  store i64 %11, ptr %5, align 8, !tbaa !110
  %12 = getelementptr inbounds nuw i8, ptr %10, i64 4
  %13 = load i32, ptr %12, align 4, !tbaa !99
  %.not = icmp eq i32 %13, 0
  br i1 %.not, label %14, label %.thread

14:                                               ; preds = %4
  %15 = getelementptr inbounds nuw i8, ptr %0, i64 32
  %16 = load ptr, ptr %15, align 8, !tbaa !98
  %17 = tail call i64 @avio_seek(ptr noundef %16, i64 noundef %11, i32 noundef 0) #12
  %18 = icmp slt i64 %17, 0
  br i1 %18, label %.thread, label %19

19:                                               ; preds = %14
  %20 = getelementptr inbounds nuw i8, ptr %10, i64 12
  store i32 0, ptr %20, align 4, !tbaa !75
  %21 = call fastcc i32 @rm_sync(ptr noundef nonnull %0, ptr noundef %6, ptr noundef %8, ptr noundef %7, ptr noundef %5)
  %22 = icmp slt i32 %21, 0
  br i1 %22, label %.thread, label %.lr.ph

.lr.ph:                                           ; preds = %19
  %23 = getelementptr inbounds nuw i8, ptr %0, i64 48
  br label %24

24:                                               ; preds = %.lr.ph, %54
  %25 = phi i32 [ %21, %.lr.ph ], [ %58, %54 ]
  %26 = load ptr, ptr %23, align 8, !tbaa !107
  %27 = load i32, ptr %7, align 4, !tbaa !61
  %28 = sext i32 %27 to i64
  %29 = getelementptr inbounds ptr, ptr %26, i64 %28
  %30 = load ptr, ptr %29, align 8, !tbaa !108
  %31 = getelementptr inbounds nuw i8, ptr %30, i64 16
  %32 = load ptr, ptr %31, align 8, !tbaa !16
  %33 = load i32, ptr %32, align 8, !tbaa !21
  %34 = icmp eq i32 %33, 0
  br i1 %34, label %35, label %44

35:                                               ; preds = %24
  %36 = load ptr, ptr %15, align 8, !tbaa !98
  %37 = tail call i32 @avio_r8(ptr noundef %36) #12
  %38 = add nsw i32 %25, -1
  %39 = and i32 %37, 64
  %.not28 = icmp eq i32 %39, 0
  br i1 %.not28, label %40, label %44

40:                                               ; preds = %35
  %41 = load ptr, ptr %15, align 8, !tbaa !98
  %42 = tail call i32 @avio_r8(ptr noundef %41) #12
  %43 = add nsw i32 %25, -2
  br label %44

44:                                               ; preds = %35, %40, %24
  %.026 = phi i32 [ %38, %35 ], [ %43, %40 ], [ %25, %24 ]
  %.024 = phi i32 [ 1, %35 ], [ %42, %40 ], [ 1, %24 ]
  %45 = load i32, ptr %8, align 4, !tbaa !61
  %46 = and i32 %45, 2
  %.not29 = icmp ne i32 %46, 0
  %47 = and i32 %.024, 127
  %48 = icmp eq i32 %47, 1
  %or.cond = select i1 %.not29, i1 %48, i1 false
  br i1 %or.cond, label %49, label %54

49:                                               ; preds = %44
  %50 = load i64, ptr %6, align 8, !tbaa !110
  tail call void (ptr, i32, ptr, ...) @av_log(ptr noundef nonnull %0, i32 noundef 56, ptr noundef nonnull @.str.37, i32 noundef %45, i32 noundef %27, i32 noundef %1, i64 noundef %50, i32 noundef %.024) #12
  %51 = load i64, ptr %5, align 8, !tbaa !110
  %52 = tail call i32 @av_add_index_entry(ptr noundef nonnull %30, i64 noundef %51, i64 noundef %50, i32 noundef 0, i32 noundef 0, i32 noundef 1) #12
  %53 = icmp eq i32 %27, %1
  br i1 %53, label %60, label %54

54:                                               ; preds = %44, %49
  %55 = load ptr, ptr %15, align 8, !tbaa !98
  %56 = sext i32 %.026 to i64
  %57 = tail call i64 @avio_skip(ptr noundef %55, i64 noundef %56) #12
  %58 = call fastcc i32 @rm_sync(ptr noundef nonnull %0, ptr noundef %6, ptr noundef %8, ptr noundef %7, ptr noundef %5)
  %59 = icmp slt i32 %58, 0
  br i1 %59, label %.thread, label %24

60:                                               ; preds = %49
  store i64 %51, ptr %2, align 8, !tbaa !110
  br label %.thread

.thread:                                          ; preds = %54, %19, %14, %4, %60
  %.0 = phi i64 [ %50, %60 ], [ -9223372036854775808, %4 ], [ -9223372036854775808, %14 ], [ -9223372036854775808, %19 ], [ -9223372036854775808, %54 ]
  call void @llvm.lifetime.end.p0(i64 4, ptr nonnull %8) #12
  call void @llvm.lifetime.end.p0(i64 4, ptr nonnull %7) #12
  call void @llvm.lifetime.end.p0(i64 8, ptr nonnull %6) #12
  call void @llvm.lifetime.end.p0(i64 8, ptr nonnull %5) #12
  ret i64 %.0
}